target datalayout = "e-m:e-p270:32:32-p271:32:32-p272:64:64-i64:64-i128:128-f80:128-n8:16:32:64-S128"
target triple = "x86_64-unknown-linux-gnu"

%"struct.cvc5::internal::StatisticBaseValue.base" = type <{ ptr, i8 }>
%"class.std::chrono::time_point" = type { %"class.std::chrono::duration" }
%"class.std::chrono::duration" = type { i64 }
%"class.cvc5::internal::TimerStat" = type { ptr }
%"struct.cvc5::internal::StatisticTimerValue" = type <{ %"struct.cvc5::internal::StatisticBaseValue.base", [7 x i8], %"struct.cvc5::internal::StatisticTimerValue::duration", %"class.std::chrono::time_point", i8, [7 x i8] }>
%"struct.cvc5::internal::StatisticTimerValue::duration" = type { %"class.std::chrono::duration" }
%"class.cvc5::internal::CodeTimer" = type <{ ptr, i8, [7 x i8] }>

; Function Attrs: mustprogress nounwind uwtable
define hidden void @_ZN4cvc58internal9TimerStat5startEv(ptr noundef nonnull align 8 dereferenceable(8) %this) #0 align 2 {
entry:
  %this.addr = alloca ptr, align 8
  %ref.tmp = alloca %"class.std::chrono::time_point", align 8
  store ptr %this, ptr %this.addr, align 8
  %this1 = load ptr, ptr %this.addr, align 8
  %call = call i64 @_ZNSt6chrono3_V212steady_clock3nowEv() #5
  %coerce.dive = getelementptr inbounds %"class.std::chrono::time_point", ptr %ref.tmp, i32 0, i32 0
  %coerce.dive2 = getelementptr inbounds %"class.std::chrono::duration", ptr %coerce.dive, i32 0, i32 0
  store i64 %call, ptr %coerce.dive2, align 8
  %d_data = getelementptr inbounds %"class.cvc5::internal::TimerStat", ptr %this1, i32 0, i32 0
  %0 = load ptr, ptr %d_data, align 8
  %d_start = getelementptr inbounds %"struct.cvc5::internal::StatisticTimerValue", ptr %0, i32 0, i32 3
  call void @llvm.memcpy.p0.p0.i64(ptr align 8 %d_start, ptr align 8 %ref.tmp, i64 8, i1 false)
  %d_data3 = getelementptr inbounds %"class.cvc5::internal::TimerStat", ptr %this1, i32 0, i32 0
  %1 = load ptr, ptr %d_data3, align 8
  %d_running = getelementptr inbounds %"struct.cvc5::internal::StatisticTimerValue", ptr %1, i32 0, i32 4
  store i8 1, ptr %d_running, align 8
  ret void
}

; Function Attrs: mustprogress nounwind uwtable
define hidden noundef zeroext i1 @_ZNK4cvc58internal9TimerStat7runningEv(ptr noundef nonnull align 8 dereferenceable(8) %this) #0 align 2 {
entry:
  %this.addr = alloca ptr, align 8
  store ptr %this, ptr %this.addr, align 8
  %this1 = load ptr, ptr %this.addr, align 8
  %d_data = getelementptr inbounds %"class.cvc5::internal::TimerStat", ptr %this1, i32 0, i32 0
  %0 = load ptr, ptr %d_data, align 8
  %d_running = getelementptr inbounds %"struct.cvc5::internal::StatisticTimerValue", ptr %0, i32 0, i32 4
  %1 = load i8, ptr %d_running, align 8
  %tobool = trunc i8 %1 to i1
  ret i1 %tobool
}

; Function Attrs: mustprogress nounwind uwtable
define hidden void @_ZN4cvc58internal9CodeTimerC2ERNS0_9TimerStatEb(ptr noundef nonnull align 8 dereferenceable(9) %this, ptr noundef nonnull align 8 dereferenceable(8) %timer, i1 noundef zeroext %allow_reentrant) unnamed_addr #0 align 2 {
entry:
  %this.addr = alloca ptr, align 8
  %timer.addr = alloca ptr, align 8
  %allow_reentrant.addr = alloca i8, align 1
  store ptr %this, ptr %this.addr, align 8
  store ptr %timer, ptr %timer.addr, align 8
  %frombool = zext i1 %allow_reentrant to i8
  store i8 %frombool, ptr %allow_reentrant.addr, align 1
  %this1 = load ptr, ptr %this.addr, align 8
  %d_timer = getelementptr inbounds %"class.cvc5::internal::CodeTimer", ptr %this1, i32 0, i32 0
  %0 = load ptr, ptr %timer.addr, align 8
  store ptr %0, ptr %d_timer, align 8
  %d_reentrant = getelementptr inbounds %"class.cvc5::internal::CodeTimer", ptr %this1, i32 0, i32 1
  store i8 0, ptr %d_reentrant, align 8
  %1 = load i8, ptr %allow_reentrant.addr, align 1
  %tobool = trunc i8 %1 to i1
  br i1 %tobool, label %lor.lhs.false, label %if.then

lor.lhs.false:                                    ; preds = %entry
  %d_timer2 = getelementptr inbounds %"class.cvc5::internal::CodeTimer", ptr %this1, i32 0, i32 0
  %2 = load ptr, ptr %d_timer2, align 8
  %call = call noundef zeroext i1 @_ZNK4cvc58internal9TimerStat7runningEv(ptr noundef nonnull align 8 dereferenceable(8) %2)
  %d_reentrant3 = getelementptr inbounds %"class.cvc5::internal::CodeTimer", ptr %this1, i32 0, i32 1
  %frombool4 = zext i1 %call to i8
  store i8 %frombool4, ptr %d_reentrant3, align 8
  br i1 %call, label %if.end, label %if.then

if.then:                                          ; preds = %lor.lhs.false, %entry
  %d_timer5 = getelementptr inbounds %"class.cvc5::internal::CodeTimer", ptr %this1, i32 0, i32 0
  %3 = load ptr, ptr %d_timer5, align 8
  call void @_ZN4cvc58internal9TimerStat5startEv(ptr noundef nonnull align 8 dereferenceable(8) %3)
  br label %if.end

if.end:                                           ; preds = %if.then, %lor.lhs.false
  ret void
}