; Function Attrs: mustprogress nounwind uwtable
define hidden void @_ZN4cvc58internal9CodeTimerC2ERNS0_9TimerStatEb(ptr noundef nonnull writeonly align 8 captures(none) dereferenceable(9) initializes((0, 9)) %this, ptr noundef nonnull align 8 dereferenceable(8) %timer, i1 noundef zeroext %allow_reentrant) unnamed_addr #2 align 2 {
entry:
  store ptr %timer, ptr %this, align 8
  %d_reentrant = getelementptr inbounds nuw i8, ptr %this, i64 8
  store i8 0, ptr %d_reentrant, align 8
  br i1 %allow_reentrant, label %lor.lhs.false, label %if.then

lor.lhs.false:                                    ; preds = %entry
  %0 = load ptr, ptr %timer, align 8
  %d_running.i = getelementptr inbounds nuw i8, ptr %0, i64 32
  %1 = load i8, ptr %d_running.i, align 8
  %tobool.i = trunc i8 %1 to i1
  %frombool4 = and i8 %1, 1
  store i8 %frombool4, ptr %d_reentrant, align 8
  br i1 %tobool.i, label %if.end, label %if.then

if.then:                                          ; preds = %lor.lhs.false, %entry
  %call.i = tail call i64 @_ZNSt6chrono3_V212steady_clock3nowEv() #5
  %2 = load ptr, ptr %timer, align 8
  %d_start.i = getelementptr inbounds nuw i8, ptr %2, i64 24
  store i64 %call.i, ptr %d_start.i, align 8
  %3 = load ptr, ptr %timer, align 8
  %d_running.i1 = getelementptr inbounds nuw i8, ptr %3, i64 32
  store i8 1, ptr %d_running.i1, align 8
  br label %if.end

if.end:                                           ; preds = %if.then, %lor.lhs.false
  ret void
}